target datalayout = "e-m:e-p270:32:32-p271:32:32-p272:64:64-i64:64-i128:128-f80:128-n8:16:32:64-S128"
target triple = "x86_64-pc-linux-gnu"

%class.ZGeneration = type { ptr, i8, ptr, ptr, %class.ZForwardingTable, %class.ZWorkers, [24 x i8], %class.ZMark, %class.ZRelocate, %class.ZRelocationSet, i64, i64, i64, i32, i32, %class.ZStatHeap, %class.ZStatCycle, %class.ZStatWorkers, %class.ZStatMark, %class.ZStatRelocation, ptr }
%class.ZForwardingTable = type { %class.ZGranuleMap }
%class.ZGranuleMap = type { i64, ptr }
%class.ZWorkers = type { %class.WorkerThreads, ptr, %class.ZLock, i32, i8, ptr }
%class.WorkerThreads = type { ptr, ptr, ptr, i32, i32, i32, %class.WorkerTaskDispatcher }
%class.WorkerTaskDispatcher = type { ptr, i32, i32, %class.Semaphore, %class.Semaphore }
%class.Semaphore = type { %class.PosixSemaphore }
%class.PosixSemaphore = type { %union.sem_t }
%union.sem_t = type { i64, [24 x i8] }
%class.ZLock = type { %class.PlatformMutex }
%class.PlatformMutex = type { %union.pthread_mutex_t }
%union.pthread_mutex_t = type { %struct.__pthread_mutex_s }
%struct.__pthread_mutex_s = type { i32, i32, i32, i32, i32, i16, i16, %struct.__pthread_internal_list }
%struct.__pthread_internal_list = type { ptr, ptr }
%class.ZMark = type <{ ptr, ptr, [48 x i8], %class.ZMarkStackAllocator, %class.ZMarkStripeSet, %class.ZMarkTerminate, i64, i64, i64, i64, i64, i64, i32, [36 x i8] }>
%class.ZMarkStackAllocator = type <{ [64 x i8], %class.ZMarkStackSpace, [56 x i8], %class.ZStackList, i8, [63 x i8] }>
%class.ZMarkStackSpace = type <{ %class.ZLock, i64, i64, i64, i8, [7 x i8] }>
%class.ZStackList = type { i64, ptr, [48 x i8] }
%class.ZMarkStripeSet = type { i64, [56 x i8], [16 x %class.ZMarkStripe] }
%class.ZMarkStripe = type { %class.ZStackList.2, %class.ZStackList.2 }
%class.ZStackList.2 = type { i64, ptr, [48 x i8] }
%class.ZMarkTerminate = type { i32, i32, i32, i8, %class.ZConditionLock }
%class.ZConditionLock = type { %class.PlatformMonitor }
%class.PlatformMonitor = type { %class.PlatformMutex, %union.pthread_cond_t }
%union.pthread_cond_t = type { %struct.__pthread_cond_s }
%struct.__pthread_cond_s = type { %union.__atomic_wide_counter, %union.__atomic_wide_counter, [2 x i32], [2 x i32], i32, i32, [2 x i32] }
%union.__atomic_wide_counter = type { i64 }
%class.ZRelocate = type { ptr, %class.ZRelocateQueue }
%class.ZRelocateQueue = type { %class.ZConditionLock, %class.GrowableArrayCHeap, i32, i32, i8, i8, i32 }
%class.GrowableArrayCHeap = type { %class.GrowableArrayWithAllocator }
%class.GrowableArrayWithAllocator = type { %class.GrowableArrayView }
%class.GrowableArrayView = type { %class.GrowableArrayBase, ptr }
%class.GrowableArrayBase = type { i32, i32 }
%class.ZRelocationSet = type { ptr, %class.ZForwardingAllocator, ptr, i64, %class.ZLock, %class.GrowableArrayCHeap.4, %class.GrowableArrayCHeap.4 }
%class.ZForwardingAllocator = type { ptr, ptr, ptr }
%class.GrowableArrayCHeap.4 = type { %class.GrowableArrayWithAllocator.5 }
%class.GrowableArrayWithAllocator.5 = type { %class.GrowableArrayView.6 }
%class.GrowableArrayView.6 = type { %class.GrowableArrayBase, ptr }
%class.ZStatHeap = type { %class.ZLock, %"struct.ZStatHeap::ZAtGenerationCollectionStart", %"struct.ZStatHeap::ZAtMarkStart", %"struct.ZStatHeap::ZAtMarkEnd", %"struct.ZStatHeap::ZAtRelocateStart", %"struct.ZStatHeap::ZAtRelocateEnd", %class.NumberSeq }
%"struct.ZStatHeap::ZAtGenerationCollectionStart" = type { i64, i64, i64, i64, i64 }
%"struct.ZStatHeap::ZAtMarkStart" = type { i64, i64, i64, i64, i64, i64 }
%"struct.ZStatHeap::ZAtMarkEnd" = type { i64, i64, i64, i64, i64, i64, i64, i64 }
%"struct.ZStatHeap::ZAtRelocateStart" = type { i64, i64, i64, i64, i64, i64, i64, i64, i64, i64, i64 }
%"struct.ZStatHeap::ZAtRelocateEnd" = type { i64, i64, i64, i64, i64, i64, i64, i64, i64, i64, i64, i64, i64, i64, i64, i64, i64 }
%class.NumberSeq = type { %class.AbsSeq, double, double }
%class.AbsSeq = type { ptr, i32, double, double, double, double, double }
%class.ZStatCycle = type { %class.ZLock, i64, %class.TimeInstant, %class.TimeInstant, %class.NumberSeq, %class.NumberSeq, %class.NumberSeq, %class.NumberSeq, double }
%class.TimeInstant = type { %class.CompositeCounterRepresentation }
%class.CompositeCounterRepresentation = type { %class.Representation }
%class.Representation = type { %class.PairRep }
%class.PairRep = type { i64, i64 }
%class.ZStatWorkers = type { %class.ZLock, i32, %class.TimeInstant, %class.TimeInterval, %class.TimeInterval }
%class.TimeInterval = type { %class.CompositeCounterRepresentation }
%class.ZStatMark = type { i64, i64, i64, i64, i64, i64 }
%class.ZStatRelocation = type { %class.ZRelocationSetSelectorStats, i64, i64, i64, i64, i64 }
%class.ZRelocationSetSelectorStats = type { [16 x %class.ZRelocationSetSelectorGroupStats], [16 x %class.ZRelocationSetSelectorGroupStats], [16 x %class.ZRelocationSetSelectorGroupStats], i64 }
%class.ZRelocationSetSelectorGroupStats = type { i64, i64, i64, i64, i64, i64 }
%class.ZRelocationSetIteratorImpl.23 = type { %class.ZArrayIteratorImpl.24 }
%class.ZArrayIteratorImpl.24 = type { i64, i64, ptr }

; Function Attrs: mustprogress nounwind uwtable
define linkonce_odr hidden void @_ZN18ZArrayIteratorImplIP11ZForwardingLb1EEC2EPKS1_m(ptr noundef nonnull align 8 dereferenceable(24) %0, ptr noundef %1, i64 noundef %2) unnamed_addr #1 comdat align 2 {
  %4 = alloca ptr, align 8
  %5 = alloca ptr, align 8
  %6 = alloca i64, align 8
  store ptr %0, ptr %4, align 8
  store ptr %1, ptr %5, align 8
  store i64 %2, ptr %6, align 8
  %7 = load ptr, ptr %4, align 8
  %8 = getelementptr inbounds %class.ZArrayIteratorImpl.24, ptr %7, i32 0, i32 0
  store i64 0, ptr %8, align 8
  %9 = getelementptr inbounds %class.ZArrayIteratorImpl.24, ptr %7, i32 0, i32 1
  %10 = load i64, ptr %6, align 8
  store i64 %10, ptr %9, align 8
  %11 = getelementptr inbounds %class.ZArrayIteratorImpl.24, ptr %7, i32 0, i32 2
  %12 = load ptr, ptr %5, align 8
  store ptr %12, ptr %11, align 8
  ret void
}

; Function Attrs: mustprogress nounwind uwtable
define linkonce_odr hidden void @_ZN26ZRelocationSetIteratorImplILb1EEC2EP14ZRelocationSet(ptr noundef nonnull align 8 dereferenceable(24) %0, ptr noundef %1) unnamed_addr #1 comdat align 2 {
  %3 = alloca ptr, align 8
  %4 = alloca ptr, align 8
  store ptr %0, ptr %3, align 8
  store ptr %1, ptr %4, align 8
  %5 = load ptr, ptr %3, align 8
  %6 = load ptr, ptr %4, align 8
  %7 = getelementptr inbounds %class.ZRelocationSet, ptr %6, i32 0, i32 2
  %8 = load ptr, ptr %7, align 8
  %9 = load ptr, ptr %4, align 8
  %10 = getelementptr inbounds %class.ZRelocationSet, ptr %9, i32 0, i32 3
  %11 = load i64, ptr %10, align 8
  call void @_ZN18ZArrayIteratorImplIP11ZForwardingLb1EEC2EPKS1_m(ptr noundef nonnull align 8 dereferenceable(24) %5, ptr noundef %8, i64 noundef %11)
  ret void
}

; Function Attrs: mustprogress nounwind uwtable
define hidden void @_ZN11ZGeneration32relocation_set_parallel_iteratorEv(ptr dead_on_unwind noalias writable sret(%class.ZRelocationSetIteratorImpl.23) align 8 %0, ptr noundef nonnull align 64 dereferenceable(6592) %1) #1 align 2 {
  %3 = alloca ptr, align 8
  store ptr %1, ptr %3, align 8
  %4 = load ptr, ptr %3, align 8
  %5 = getelementptr inbounds %class.ZGeneration, ptr %4, i32 0, i32 9
  call void @_ZN26ZRelocationSetIteratorImplILb1EEC2EP14ZRelocationSet(ptr noundef nonnull align 8 dereferenceable(24) %0, ptr noundef %5)
  ret void
}