; Function Attrs: mustprogress nofree norecurse nosync nounwind willreturn memory(argmem: readwrite) uwtable
define hidden void @_ZN11ZGeneration32relocation_set_parallel_iteratorEv(ptr dead_on_unwind noalias nocapture writable writeonly sret(%class.ZRelocationSetIteratorImpl.23) align 8 %0, ptr nocapture noundef nonnull readonly align 64 dereferenceable(6592) %1) local_unnamed_addr #4 align 2 {
  %3 = getelementptr inbounds i8, ptr %1, i64 3104
  %4 = load ptr, ptr %3, align 32
  %5 = getelementptr inbounds i8, ptr %1, i64 3112
  %6 = load i64, ptr %5, align 8
  store i64 0, ptr %0, align 8
  %7 = getelementptr inbounds i8, ptr %0, i64 8
  store i64 %6, ptr %7, align 8
  %8 = getelementptr inbounds i8, ptr %0, i64 16
  store ptr %4, ptr %8, align 8
  ret void
}